; Function Attrs: mustprogress uwtable
define hidden void @_ZN4cvc58internal6theory5arith6linear7NodeLog16copyParentRowIdsEv(ptr noundef nonnull align 8 dereferenceable(200) %0) local_unnamed_addr #13 align 2 {
  %2 = getelementptr inbounds nuw i8, ptr %0, i64 8
  %3 = load ptr, ptr %2, align 8, !tbaa !131
  %4 = icmp eq ptr %3, %0
  br i1 %4, label %_ZNSt13unordered_mapIijSt4hashIiESt8equal_toIiESaISt4pairIKijEEEaSERKS8_.exit, label %5

5:                                                ; preds = %1
  %6 = getelementptr inbounds nuw i8, ptr %0, i64 144
  %7 = getelementptr inbounds nuw i8, ptr %3, i64 144
  tail call void @_ZNSt10_HashtableIiSt4pairIKijESaIS2_ENSt8__detail10_Select1stESt8equal_toIiESt4hashIiENS4_18_Mod_range_hashingENS4_20_Default_ranged_hashENS4_20_Prime_rehash_policyENS4_17_Hashtable_traitsILb0ELb0ELb1EEEE18_M_assign_elementsIRKSF_EEvOT_(ptr noundef nonnull align 8 dereferenceable(56) %6, ptr noundef nonnull align 8 dereferenceable(56) %7)
  br label %_ZNSt13unordered_mapIijSt4hashIiESt8equal_toIiESaISt4pairIKijEEEaSERKS8_.exit

_ZNSt13unordered_mapIijSt4hashIiESt8equal_toIiESaISt4pairIKijEEEaSERKS8_.exit: ; preds = %1, %5
  ret void
}